target datalayout = "e-m:e-p270:32:32-p271:32:32-p272:64:64-i64:64-i128:128-f80:128-n8:16:32:64-S128"
target triple = "x86_64-pc-linux-gnu"

%struct.lxb_html_tree = type { ptr, ptr, ptr, ptr, ptr, ptr, ptr, %struct.lxb_html_tree_pending_table_t, ptr, i8, i8, i8, i8, i8, i8, ptr, ptr, ptr, i32, i64 }
%struct.lxb_html_tree_pending_table_t = type { ptr, i8 }
%struct.lxb_html_tokenizer = type { ptr, ptr, ptr, ptr, ptr, ptr, ptr, ptr, ptr, ptr, ptr, ptr, ptr, ptr, ptr, i64, ptr, ptr, ptr, ptr, ptr, i64, i64, ptr, ptr, i64, i64, i32, i32, i8, i32, i32, i8, ptr, i64 }

; Function Attrs: nounwind uwtable
define internal void @lxb_html_tokenizer_callback_token_done_set(ptr noundef %0, ptr noundef %1, ptr noundef %2) #0 {
  %4 = alloca ptr, align 8
  %5 = alloca ptr, align 8
  %6 = alloca ptr, align 8
  store ptr %0, ptr %4, align 8
  store ptr %1, ptr %5, align 8
  store ptr %2, ptr %6, align 8
  %7 = load ptr, ptr %5, align 8
  %8 = load ptr, ptr %4, align 8
  %9 = getelementptr inbounds %struct.lxb_html_tokenizer, ptr %8, i32 0, i32 2
  store ptr %7, ptr %9, align 8
  %10 = load ptr, ptr %6, align 8
  %11 = load ptr, ptr %4, align 8
  %12 = getelementptr inbounds %struct.lxb_html_tokenizer, ptr %11, i32 0, i32 3
  store ptr %10, ptr %12, align 8
  ret void
}

; Function Attrs: nounwind uwtable
define hidden i32 @lxb_html_tree_init(ptr noundef %0, ptr noundef %1) #0 {
  %3 = alloca i32, align 4
  %4 = alloca ptr, align 8
  %5 = alloca ptr, align 8
  %6 = alloca i32, align 4
  store ptr %0, ptr %4, align 8
  store ptr %1, ptr %5, align 8
  %7 = load ptr, ptr %4, align 8
  %8 = icmp eq ptr %7, null
  br i1 %8, label %9, label %10

9:                                                ; preds = %2
  store i32 3, ptr %3, align 4
  br label %101

10:                                               ; preds = %2
  %11 = load ptr, ptr %5, align 8
  %12 = icmp eq ptr %11, null
  br i1 %12, label %13, label %14

13:                                               ; preds = %10
  store i32 9, ptr %3, align 4
  br label %101

14:                                               ; preds = %10
  %15 = call ptr @lexbor_array_create()
  %16 = load ptr, ptr %4, align 8
  %17 = getelementptr inbounds %struct.lxb_html_tree, ptr %16, i32 0, i32 4
  store ptr %15, ptr %17, align 8
  %18 = load ptr, ptr %4, align 8
  %19 = getelementptr inbounds %struct.lxb_html_tree, ptr %18, i32 0, i32 4
  %20 = load ptr, ptr %19, align 8
  %21 = call i32 @lexbor_array_init(ptr noundef %20, i64 noundef 128)
  store i32 %21, ptr %6, align 4
  %22 = load i32, ptr %6, align 4
  %23 = icmp ne i32 %22, 0
  br i1 %23, label %24, label %26

24:                                               ; preds = %14
  %25 = load i32, ptr %6, align 4
  store i32 %25, ptr %3, align 4
  br label %101

26:                                               ; preds = %14
  %27 = call ptr @lexbor_array_create()
  %28 = load ptr, ptr %4, align 8
  %29 = getelementptr inbounds %struct.lxb_html_tree, ptr %28, i32 0, i32 5
  store ptr %27, ptr %29, align 8
  %30 = load ptr, ptr %4, align 8
  %31 = getelementptr inbounds %struct.lxb_html_tree, ptr %30, i32 0, i32 5
  %32 = load ptr, ptr %31, align 8
  %33 = call i32 @lexbor_array_init(ptr noundef %32, i64 noundef 128)
  store i32 %33, ptr %6, align 4
  %34 = load i32, ptr %6, align 4
  %35 = icmp ne i32 %34, 0
  br i1 %35, label %36, label %38

36:                                               ; preds = %26
  %37 = load i32, ptr %6, align 4
  store i32 %37, ptr %3, align 4
  br label %101

38:                                               ; preds = %26
  %39 = call ptr @lexbor_array_obj_create()
  %40 = load ptr, ptr %4, align 8
  %41 = getelementptr inbounds %struct.lxb_html_tree, ptr %40, i32 0, i32 6
  store ptr %39, ptr %41, align 8
  %42 = load ptr, ptr %4, align 8
  %43 = getelementptr inbounds %struct.lxb_html_tree, ptr %42, i32 0, i32 6
  %44 = load ptr, ptr %43, align 8
  %45 = call i32 @lexbor_array_obj_init(ptr noundef %44, i64 noundef 64, i64 noundef 8)
  store i32 %45, ptr %6, align 4
  %46 = load i32, ptr %6, align 4
  %47 = icmp ne i32 %46, 0
  br i1 %47, label %48, label %50

48:                                               ; preds = %38
  %49 = load i32, ptr %6, align 4
  store i32 %49, ptr %3, align 4
  br label %101

50:                                               ; preds = %38
  %51 = call ptr @lexbor_array_obj_create()
  %52 = load ptr, ptr %4, align 8
  %53 = getelementptr inbounds %struct.lxb_html_tree, ptr %52, i32 0, i32 7
  %54 = getelementptr inbounds %struct.lxb_html_tree_pending_table_t, ptr %53, i32 0, i32 0
  store ptr %51, ptr %54, align 8
  %55 = load ptr, ptr %4, align 8
  %56 = getelementptr inbounds %struct.lxb_html_tree, ptr %55, i32 0, i32 7
  %57 = getelementptr inbounds %struct.lxb_html_tree_pending_table_t, ptr %56, i32 0, i32 0
  %58 = load ptr, ptr %57, align 8
  %59 = call i32 @lexbor_array_obj_init(ptr noundef %58, i64 noundef 16, i64 noundef 16)
  store i32 %59, ptr %6, align 4
  %60 = load i32, ptr %6, align 4
  %61 = icmp ne i32 %60, 0
  br i1 %61, label %62, label %64

62:                                               ; preds = %50
  %63 = load i32, ptr %6, align 4
  store i32 %63, ptr %3, align 4
  br label %101

64:                                               ; preds = %50
  %65 = call ptr @lexbor_array_obj_create()
  %66 = load ptr, ptr %4, align 8
  %67 = getelementptr inbounds %struct.lxb_html_tree, ptr %66, i32 0, i32 8
  store ptr %65, ptr %67, align 8
  %68 = load ptr, ptr %4, align 8
  %69 = getelementptr inbounds %struct.lxb_html_tree, ptr %68, i32 0, i32 8
  %70 = load ptr, ptr %69, align 8
  %71 = call i32 @lexbor_array_obj_init(ptr noundef %70, i64 noundef 16, i64 noundef 32)
  store i32 %71, ptr %6, align 4
  %72 = load i32, ptr %6, align 4
  %73 = icmp ne i32 %72, 0
  br i1 %73, label %74, label %76

74:                                               ; preds = %64
  %75 = load i32, ptr %6, align 4
  store i32 %75, ptr %3, align 4
  br label %101

76:                                               ; preds = %64
  %77 = load ptr, ptr %5, align 8
  %78 = call ptr @lxb_html_tokenizer_ref(ptr noundef %77)
  %79 = load ptr, ptr %4, align 8
  %80 = getelementptr inbounds %struct.lxb_html_tree, ptr %79, i32 0, i32 0
  store ptr %78, ptr %80, align 8
  %81 = load ptr, ptr %4, align 8
  %82 = getelementptr inbounds %struct.lxb_html_tree, ptr %81, i32 0, i32 1
  store ptr null, ptr %82, align 8
  %83 = load ptr, ptr %4, align 8
  %84 = getelementptr inbounds %struct.lxb_html_tree, ptr %83, i32 0, i32 2
  store ptr null, ptr %84, align 8
  %85 = load ptr, ptr %4, align 8
  %86 = getelementptr inbounds %struct.lxb_html_tree, ptr %85, i32 0, i32 3
  store ptr null, ptr %86, align 8
  %87 = load ptr, ptr %4, align 8
  %88 = getelementptr inbounds %struct.lxb_html_tree, ptr %87, i32 0, i32 9
  store i8 0, ptr %88, align 8
  %89 = load ptr, ptr %4, align 8
  %90 = getelementptr inbounds %struct.lxb_html_tree, ptr %89, i32 0, i32 10
  store i8 1, ptr %90, align 1
  %91 = load ptr, ptr %4, align 8
  %92 = getelementptr inbounds %struct.lxb_html_tree, ptr %91, i32 0, i32 15
  store ptr @lxb_html_tree_insertion_mode_initial, ptr %92, align 8
  %93 = load ptr, ptr %4, align 8
  %94 = getelementptr inbounds %struct.lxb_html_tree, ptr %93, i32 0, i32 17
  store ptr null, ptr %94, align 8
  %95 = load ptr, ptr %4, align 8
  %96 = getelementptr inbounds %struct.lxb_html_tree, ptr %95, i32 0, i32 18
  store i32 0, ptr %96, align 8
  %97 = load ptr, ptr %4, align 8
  %98 = getelementptr inbounds %struct.lxb_html_tree, ptr %97, i32 0, i32 19
  store i64 1, ptr %98, align 8
  %99 = load ptr, ptr %5, align 8
  %100 = load ptr, ptr %4, align 8
  call void @lxb_html_tokenizer_callback_token_done_set(ptr noundef %99, ptr noundef @lxb_html_tree_token_callback, ptr noundef %100)
  store i32 0, ptr %3, align 4
  br label %101

101:                                              ; preds = %76, %74, %62, %48, %36, %24, %13, %9
  %102 = load i32, ptr %3, align 4
  ret i32 %102
}