; Function Attrs: nounwind uwtable
define hidden i32 @lxb_html_tree_init(ptr noundef %0, ptr noundef %1) local_unnamed_addr #0 {
  %3 = icmp eq ptr %0, null
  br i1 %3, label %37, label %4

4:                                                ; preds = %2
  %5 = icmp eq ptr %1, null
  br i1 %5, label %37, label %6

6:                                                ; preds = %4
  %7 = tail call ptr @lexbor_array_create() #9
  %8 = getelementptr inbounds i8, ptr %0, i64 32
  store ptr %7, ptr %8, align 8
  %9 = tail call i32 @lexbor_array_init(ptr noundef %7, i64 noundef 128) #9
  %.not = icmp eq i32 %9, 0
  br i1 %.not, label %10, label %37

10:                                               ; preds = %6
  %11 = tail call ptr @lexbor_array_create() #9
  %12 = getelementptr inbounds i8, ptr %0, i64 40
  store ptr %11, ptr %12, align 8
  %13 = tail call i32 @lexbor_array_init(ptr noundef %11, i64 noundef 128) #9
  %.not42 = icmp eq i32 %13, 0
  br i1 %.not42, label %14, label %37

14:                                               ; preds = %10
  %15 = tail call ptr @lexbor_array_obj_create() #9
  %16 = getelementptr inbounds i8, ptr %0, i64 48
  store ptr %15, ptr %16, align 8
  %17 = tail call i32 @lexbor_array_obj_init(ptr noundef %15, i64 noundef 64, i64 noundef 8) #9
  %.not43 = icmp eq i32 %17, 0
  br i1 %.not43, label %18, label %37

18:                                               ; preds = %14
  %19 = tail call ptr @lexbor_array_obj_create() #9
  %20 = getelementptr inbounds i8, ptr %0, i64 56
  store ptr %19, ptr %20, align 8
  %21 = tail call i32 @lexbor_array_obj_init(ptr noundef %19, i64 noundef 16, i64 noundef 16) #9
  %.not44 = icmp eq i32 %21, 0
  br i1 %.not44, label %22, label %37

22:                                               ; preds = %18
  %23 = tail call ptr @lexbor_array_obj_create() #9
  %24 = getelementptr inbounds i8, ptr %0, i64 72
  store ptr %23, ptr %24, align 8
  %25 = tail call i32 @lexbor_array_obj_init(ptr noundef %23, i64 noundef 16, i64 noundef 32) #9
  %.not45 = icmp eq i32 %25, 0
  br i1 %.not45, label %26, label %37

26:                                               ; preds = %22
  %27 = tail call ptr @lxb_html_tokenizer_ref(ptr noundef nonnull %1) #9
  store ptr %27, ptr %0, align 8
  %28 = getelementptr inbounds i8, ptr %0, i64 8
  %29 = getelementptr inbounds i8, ptr %0, i64 80
  store i8 0, ptr %29, align 8
  %30 = getelementptr inbounds i8, ptr %0, i64 81
  tail call void @llvm.memset.p0.i64(ptr noundef nonnull align 8 dereferenceable(24) %28, i8 0, i64 24, i1 false)
  store i8 1, ptr %30, align 1
  %31 = getelementptr inbounds i8, ptr %0, i64 88
  store ptr @lxb_html_tree_insertion_mode_initial, ptr %31, align 8
  %32 = getelementptr inbounds i8, ptr %0, i64 104
  store ptr null, ptr %32, align 8
  %33 = getelementptr inbounds i8, ptr %0, i64 112
  store i32 0, ptr %33, align 8
  %34 = getelementptr inbounds i8, ptr %0, i64 120
  store i64 1, ptr %34, align 8
  %35 = getelementptr inbounds i8, ptr %1, i64 16
  store ptr @lxb_html_tree_token_callback, ptr %35, align 8
  %36 = getelementptr inbounds i8, ptr %1, i64 24
  store ptr %0, ptr %36, align 8
  br label %37

37:                                               ; preds = %22, %18, %14, %10, %6, %4, %2, %26
  %.0 = phi i32 [ 0, %26 ], [ 3, %2 ], [ 9, %4 ], [ %9, %6 ], [ %13, %10 ], [ %17, %14 ], [ %21, %18 ], [ %25, %22 ]
  ret i32 %.0
}